target datalayout = "e-m:e-p270:32:32-p271:32:32-p272:64:64-i64:64-i128:128-f80:128-n8:16:32:64-S128"
target triple = "x86_64-pc-linux-gnu"

%class.LogTagSet = type { ptr, i64, [5 x i32], [4 x i8], %class.LogOutputList, %class.LogDecorators, ptr }
%class.LogOutputList = type <{ [6 x ptr], i32, [4 x i8] }>
%class.LogDecorators = type { i32 }
%class.Metadata = type { ptr }
%class.OopHandle = type { ptr }
%class.AccessFlags = type { i32 }
%class.Method = type { %class.Metadata, ptr, ptr, ptr, ptr, %class.AccessFlags, i32, %class.MethodFlags, i16, %class.JfrTraceFlag, ptr, ptr, ptr, ptr }
%class.MethodFlags = type { i32 }
%class.JfrTraceFlag = type { i16 }
%class.ConstantPool = type <{ %class.Metadata, ptr, ptr, ptr, ptr, ptr, i16, i16, i16, i16, i16, [2 x i8], i32, %union.anon.4, [4 x i8] }>
%union.anon.4 = type { i32 }
%class.InstanceKlass = type { %class.Klass.base, ptr, ptr, ptr, ptr, ptr, ptr, ptr, ptr, ptr, ptr, i32, i32, i32, i32, i16, i16, i16, i16, i8, i8, i8, i8, %class.InstanceKlassFlags, ptr, ptr, ptr, ptr, ptr, i64, ptr, ptr, ptr, ptr, ptr, ptr, ptr, ptr, ptr, ptr, ptr, ptr, ptr }
%class.Klass.base = type <{ %class.Metadata, i32, i32, i32, i32, ptr, ptr, ptr, [8 x ptr], %class.OopHandle, ptr, ptr, ptr, ptr, ptr, i32, %class.AccessFlags, i64, i64, i8, i8, i16, i16, [2 x i8], i32 }>
%class.InstanceKlassFlags = type <{ i16, i8, i8 }>
%class.ConstMethod = type <{ i64, ptr, ptr, i32, %class.ConstMethodFlags, i8, i8, i16, i16, i16, i16, i16, i16, i16, i16, i16, [4 x i8] }>
%class.ConstMethodFlags = type { i32 }
%"class.MetaspaceClosure::MSORef" = type { %"class.MetaspaceClosure::Ref", ptr }
%"class.MetaspaceClosure::Ref" = type { ptr, i32, ptr, ptr }
%"class.MetaspaceClosure::MSORef.67" = type { %"class.MetaspaceClosure::Ref", ptr }
%"class.MetaspaceClosure::MSORef.68" = type { %"class.MetaspaceClosure::Ref", ptr }

@.str.15 = private unnamed_addr constant [17 x i8] c"Iter(Method): %p\00", align 1
@_ZN16LogTagSetMappingILN6LogTag4typeE14ELS1_0ELS1_0ELS1_0ELS1_0ELS1_0EE7_tagsetE = linkonce_odr hidden global %class.LogTagSet zeroinitializer, comdat, align 8

; Function Attrs: mustprogress nounwind uwtable
define linkonce_odr hidden void @_ZN16MetaspaceClosure3RefC2ENS_11WritabilityE(ptr noundef nonnull align 8 dereferenceable(32) %0, i32 noundef %1) unnamed_addr #1 comdat align 2 {
  %3 = alloca ptr, align 8
  %4 = alloca i32, align 4
  store ptr %0, ptr %3, align 8
  store i32 %1, ptr %4, align 4
  %5 = load ptr, ptr %3, align 8
  store ptr getelementptr inbounds inrange(-16, 72) ({ [11 x ptr] }, ptr @_ZTVN16MetaspaceClosure3RefE, i32 0, i32 0, i32 2), ptr %5, align 8
  %6 = getelementptr inbounds %"class.MetaspaceClosure::Ref", ptr %5, i32 0, i32 1
  %7 = load i32, ptr %4, align 4
  store i32 %7, ptr %6, align 8
  %8 = getelementptr inbounds %"class.MetaspaceClosure::Ref", ptr %5, i32 0, i32 2
  store ptr null, ptr %8, align 8
  %9 = getelementptr inbounds %"class.MetaspaceClosure::Ref", ptr %5, i32 0, i32 3
  store ptr null, ptr %9, align 8
  ret void
}

; Function Attrs: mustprogress nounwind uwtable
define linkonce_odr hidden void @_ZN16MetaspaceClosure6MSORefI14MethodCountersEC2EPPS1_NS_11WritabilityE(ptr noundef nonnull align 8 dereferenceable(40) %0, ptr noundef %1, i32 noundef %2) unnamed_addr #1 comdat align 2 {
  %4 = alloca ptr, align 8
  %5 = alloca ptr, align 8
  %6 = alloca i32, align 4
  store ptr %0, ptr %4, align 8
  store ptr %1, ptr %5, align 8
  store i32 %2, ptr %6, align 4
  %7 = load ptr, ptr %4, align 8
  %8 = load i32, ptr %6, align 4
  call void @_ZN16MetaspaceClosure3RefC2ENS_11WritabilityE(ptr noundef nonnull align 8 dereferenceable(32) %7, i32 noundef %8)
  store ptr getelementptr inbounds inrange(-16, 72) ({ [11 x ptr] }, ptr @_ZTVN16MetaspaceClosure6MSORefI14MethodCountersEE, i32 0, i32 0, i32 2), ptr %7, align 8
  %9 = getelementptr inbounds %"class.MetaspaceClosure::MSORef.68", ptr %7, i32 0, i32 1
  %10 = load ptr, ptr %5, align 8
  store ptr %10, ptr %9, align 8
  ret void
}

; Function Attrs: mustprogress nounwind uwtable
define linkonce_odr hidden void @_ZN16MetaspaceClosure6MSORefI10MethodDataEC2EPPS1_NS_11WritabilityE(ptr noundef nonnull align 8 dereferenceable(40) %0, ptr noundef %1, i32 noundef %2) unnamed_addr #1 comdat align 2 {
  %4 = alloca ptr, align 8
  %5 = alloca ptr, align 8
  %6 = alloca i32, align 4
  store ptr %0, ptr %4, align 8
  store ptr %1, ptr %5, align 8
  store i32 %2, ptr %6, align 4
  %7 = load ptr, ptr %4, align 8
  %8 = load i32, ptr %6, align 4
  call void @_ZN16MetaspaceClosure3RefC2ENS_11WritabilityE(ptr noundef nonnull align 8 dereferenceable(32) %7, i32 noundef %8)
  store ptr getelementptr inbounds inrange(-16, 72) ({ [11 x ptr] }, ptr @_ZTVN16MetaspaceClosure6MSORefI10MethodDataEE, i32 0, i32 0, i32 2), ptr %7, align 8
  %9 = getelementptr inbounds %"class.MetaspaceClosure::MSORef.67", ptr %7, i32 0, i32 1
  %10 = load ptr, ptr %5, align 8
  store ptr %10, ptr %9, align 8
  ret void
}

; Function Attrs: mustprogress nounwind uwtable
define linkonce_odr hidden void @_ZN16MetaspaceClosure6MSORefI11ConstMethodEC2EPPS1_NS_11WritabilityE(ptr noundef nonnull align 8 dereferenceable(40) %0, ptr noundef %1, i32 noundef %2) unnamed_addr #1 comdat align 2 {
  %4 = alloca ptr, align 8
  %5 = alloca ptr, align 8
  %6 = alloca i32, align 4
  store ptr %0, ptr %4, align 8
  store ptr %1, ptr %5, align 8
  store i32 %2, ptr %6, align 4
  %7 = load ptr, ptr %4, align 8
  %8 = load i32, ptr %6, align 4
  call void @_ZN16MetaspaceClosure3RefC2ENS_11WritabilityE(ptr noundef nonnull align 8 dereferenceable(32) %7, i32 noundef %8)
  store ptr getelementptr inbounds inrange(-16, 72) ({ [11 x ptr] }, ptr @_ZTVN16MetaspaceClosure6MSORefI11ConstMethodEE, i32 0, i32 0, i32 2), ptr %7, align 8
  %9 = getelementptr inbounds %"class.MetaspaceClosure::MSORef", ptr %7, i32 0, i32 1
  %10 = load ptr, ptr %5, align 8
  store ptr %10, ptr %9, align 8
  ret void
}

; Function Attrs: mustprogress nounwind uwtable
define linkonce_odr hidden noundef ptr @_ZNK11ConstMethod9constantsEv(ptr noundef nonnull align 8 dereferenceable(52) %0) #1 comdat align 2 {
  %2 = alloca ptr, align 8
  store ptr %0, ptr %2, align 8
  %3 = load ptr, ptr %2, align 8
  %4 = getelementptr inbounds %class.ConstMethod, ptr %3, i32 0, i32 1
  %5 = load ptr, ptr %4, align 8
  ret ptr %5
}

; Function Attrs: mustprogress nounwind uwtable
define linkonce_odr hidden noundef ptr @_ZNK6Method11constMethodEv(ptr noundef nonnull align 8 dereferenceable(88) %0) #1 comdat align 2 {
  %2 = alloca ptr, align 8
  store ptr %0, ptr %2, align 8
  %3 = load ptr, ptr %2, align 8
  %4 = getelementptr inbounds %class.Method, ptr %3, i32 0, i32 1
  %5 = load ptr, ptr %4, align 8
  ret ptr %5
}

; Function Attrs: mustprogress nounwind uwtable
define linkonce_odr hidden noundef zeroext i1 @_ZNK13LogOutputList8is_levelEN8LogLevel4typeE(ptr noundef nonnull align 8 dereferenceable(52) %0, i32 noundef %1) #1 comdat align 2 {
  %3 = alloca ptr, align 8
  %4 = alloca i32, align 4
  store ptr %0, ptr %3, align 8
  store i32 %1, ptr %4, align 4
  %5 = load ptr, ptr %3, align 8
  %6 = getelementptr inbounds %class.LogOutputList, ptr %5, i32 0, i32 0
  %7 = load i32, ptr %4, align 4
  %8 = zext i32 %7 to i64
  %9 = getelementptr inbounds [6 x ptr], ptr %6, i64 0, i64 %8
  %10 = load volatile ptr, ptr %9, align 8
  %11 = icmp ne ptr %10, null
  ret i1 %11
}

; Function Attrs: mustprogress nounwind uwtable
define linkonce_odr hidden void @_ZN16MetaspaceClosure13push_with_refINS_6MSORefI14MethodCountersEES2_EEvPPT0_NS_11WritabilityE(ptr noundef nonnull align 8 dereferenceable(32) %0, ptr noundef %1, i32 noundef %2) #1 comdat align 2 {
  %4 = alloca i64, align 8
  %5 = alloca i8, align 1
  %6 = alloca i64, align 8
  %7 = alloca ptr, align 8
  %8 = alloca ptr, align 8
  %9 = alloca i32, align 4
  store ptr %0, ptr %7, align 8
  store ptr %1, ptr %8, align 8
  store i32 %2, ptr %9, align 4
  %10 = load ptr, ptr %7, align 8
  store i64 40, ptr %6, align 8
  %11 = load i64, ptr %6, align 8
  store i64 %11, ptr %4, align 8
  store i8 24, ptr %5, align 1
  %12 = load i64, ptr %4, align 8
  %13 = load i8, ptr %5, align 1
  %14 = call noundef ptr @_Z12AllocateHeapm8MEMFLAGSN17AllocFailStrategy13AllocFailEnumE(i64 noundef %12, i8 noundef zeroext %13, i32 noundef 0) #10
  %15 = load ptr, ptr %8, align 8
  %16 = load i32, ptr %9, align 4
  call void @_ZN16MetaspaceClosure6MSORefI14MethodCountersEC2EPPS1_NS_11WritabilityE(ptr noundef nonnull align 8 dereferenceable(40) %14, ptr noundef %15, i32 noundef %16)
  call void @_ZN16MetaspaceClosure9push_implEPNS_3RefE(ptr noundef nonnull align 8 dereferenceable(32) %10, ptr noundef %14)
  ret void
}

; Function Attrs: mustprogress nounwind uwtable
define linkonce_odr hidden void @_ZN16MetaspaceClosure13push_with_refINS_6MSORefI10MethodDataEES2_EEvPPT0_NS_11WritabilityE(ptr noundef nonnull align 8 dereferenceable(32) %0, ptr noundef %1, i32 noundef %2) #1 comdat align 2 {
  %4 = alloca i64, align 8
  %5 = alloca i8, align 1
  %6 = alloca i64, align 8
  %7 = alloca ptr, align 8
  %8 = alloca ptr, align 8
  %9 = alloca i32, align 4
  store ptr %0, ptr %7, align 8
  store ptr %1, ptr %8, align 8
  store i32 %2, ptr %9, align 4
  %10 = load ptr, ptr %7, align 8
  store i64 40, ptr %6, align 8
  %11 = load i64, ptr %6, align 8
  store i64 %11, ptr %4, align 8
  store i8 24, ptr %5, align 1
  %12 = load i64, ptr %4, align 8
  %13 = load i8, ptr %5, align 1
  %14 = call noundef ptr @_Z12AllocateHeapm8MEMFLAGSN17AllocFailStrategy13AllocFailEnumE(i64 noundef %12, i8 noundef zeroext %13, i32 noundef 0) #10
  %15 = load ptr, ptr %8, align 8
  %16 = load i32, ptr %9, align 4
  call void @_ZN16MetaspaceClosure6MSORefI10MethodDataEC2EPPS1_NS_11WritabilityE(ptr noundef nonnull align 8 dereferenceable(40) %14, ptr noundef %15, i32 noundef %16)
  call void @_ZN16MetaspaceClosure9push_implEPNS_3RefE(ptr noundef nonnull align 8 dereferenceable(32) %10, ptr noundef %14)
  ret void
}

; Function Attrs: mustprogress nounwind uwtable
define linkonce_odr hidden void @_ZN16MetaspaceClosure13push_with_refINS_6MSORefI11ConstMethodEES2_EEvPPT0_NS_11WritabilityE(ptr noundef nonnull align 8 dereferenceable(32) %0, ptr noundef %1, i32 noundef %2) #1 comdat align 2 {
  %4 = alloca i64, align 8
  %5 = alloca i8, align 1
  %6 = alloca i64, align 8
  %7 = alloca ptr, align 8
  %8 = alloca ptr, align 8
  %9 = alloca i32, align 4
  store ptr %0, ptr %7, align 8
  store ptr %1, ptr %8, align 8
  store i32 %2, ptr %9, align 4
  %10 = load ptr, ptr %7, align 8
  store i64 40, ptr %6, align 8
  %11 = load i64, ptr %6, align 8
  store i64 %11, ptr %4, align 8
  store i8 24, ptr %5, align 1
  %12 = load i64, ptr %4, align 8
  %13 = load i8, ptr %5, align 1
  %14 = call noundef ptr @_Z12AllocateHeapm8MEMFLAGSN17AllocFailStrategy13AllocFailEnumE(i64 noundef %12, i8 noundef zeroext %13, i32 noundef 0) #10
  %15 = load ptr, ptr %8, align 8
  %16 = load i32, ptr %9, align 4
  call void @_ZN16MetaspaceClosure6MSORefI11ConstMethodEC2EPPS1_NS_11WritabilityE(ptr noundef nonnull align 8 dereferenceable(40) %14, ptr noundef %15, i32 noundef %16)
  call void @_ZN16MetaspaceClosure9push_implEPNS_3RefE(ptr noundef nonnull align 8 dereferenceable(32) %10, ptr noundef %14)
  ret void
}

; Function Attrs: mustprogress nounwind uwtable
define linkonce_odr hidden noundef zeroext i1 @_ZNK18InstanceKlassFlags9rewrittenEv(ptr noundef nonnull align 2 dereferenceable(3) %0) #1 comdat align 2 {
  %2 = alloca ptr, align 8
  store ptr %0, ptr %2, align 8
  %3 = load ptr, ptr %2, align 8
  %4 = getelementptr inbounds %class.InstanceKlassFlags, ptr %3, i32 0, i32 0
  %5 = load i16, ptr %4, align 2
  %6 = zext i16 %5 to i32
  %7 = and i32 %6, 1
  %8 = icmp ne i32 %7, 0
  ret i1 %8
}

; Function Attrs: mustprogress nounwind uwtable
define linkonce_odr hidden noundef ptr @_ZNK12ConstantPool11pool_holderEv(ptr noundef nonnull align 8 dereferenceable(68) %0) #1 comdat align 2 {
  %2 = alloca ptr, align 8
  store ptr %0, ptr %2, align 8
  %3 = load ptr, ptr %2, align 8
  %4 = getelementptr inbounds %class.ConstantPool, ptr %3, i32 0, i32 3
  %5 = load ptr, ptr %4, align 8
  ret ptr %5
}

; Function Attrs: mustprogress nounwind uwtable
define linkonce_odr hidden noundef ptr @_ZNK6Method9constantsEv(ptr noundef nonnull align 8 dereferenceable(88) %0) #1 comdat align 2 {
  %2 = alloca ptr, align 8
  store ptr %0, ptr %2, align 8
  %3 = load ptr, ptr %2, align 8
  %4 = call noundef ptr @_ZNK6Method11constMethodEv(ptr noundef nonnull align 8 dereferenceable(88) %3)
  %5 = call noundef ptr @_ZNK11ConstMethod9constantsEv(ptr noundef nonnull align 8 dereferenceable(52) %4)
  ret ptr %5
}

; Function Attrs: mustprogress nounwind uwtable
define linkonce_odr hidden noundef zeroext i1 @_ZNK9LogTagSet8is_levelEN8LogLevel4typeE(ptr noundef nonnull align 8 dereferenceable(112) %0, i32 noundef %1) #1 comdat align 2 {
  %3 = alloca ptr, align 8
  %4 = alloca i32, align 4
  store ptr %0, ptr %3, align 8
  store i32 %1, ptr %4, align 4
  %5 = load ptr, ptr %3, align 8
  %6 = getelementptr inbounds %class.LogTagSet, ptr %5, i32 0, i32 4
  %7 = load i32, ptr %4, align 4
  %8 = call noundef zeroext i1 @_ZNK13LogOutputList8is_levelEN8LogLevel4typeE(ptr noundef nonnull align 8 dereferenceable(52) %6, i32 noundef %7)
  ret i1 %8
}

; Function Attrs: mustprogress nounwind uwtable
define linkonce_odr hidden noundef nonnull align 8 dereferenceable(112) ptr @_ZN16LogTagSetMappingILN6LogTag4typeE14ELS1_0ELS1_0ELS1_0ELS1_0ELS1_0EE6tagsetEv() #1 comdat align 2 {
  ret ptr @_ZN16LogTagSetMappingILN6LogTag4typeE14ELS1_0ELS1_0ELS1_0ELS1_0ELS1_0EE7_tagsetE
}

; Function Attrs: mustprogress nounwind uwtable
define linkonce_odr hidden void @_ZN16MetaspaceClosure4pushI14MethodCountersEEvPPT_NS_11WritabilityE(ptr noundef nonnull align 8 dereferenceable(32) %0, ptr noundef %1, i32 noundef %2) #1 comdat align 2 {
  %4 = alloca ptr, align 8
  %5 = alloca ptr, align 8
  %6 = alloca i32, align 4
  store ptr %0, ptr %4, align 8
  store ptr %1, ptr %5, align 8
  store i32 %2, ptr %6, align 4
  %7 = load ptr, ptr %4, align 8
  %8 = load ptr, ptr %5, align 8
  %9 = load i32, ptr %6, align 4
  call void @_ZN16MetaspaceClosure13push_with_refINS_6MSORefI14MethodCountersEES2_EEvPPT0_NS_11WritabilityE(ptr noundef nonnull align 8 dereferenceable(32) %7, ptr noundef %8, i32 noundef %9)
  ret void
}

; Function Attrs: mustprogress nounwind uwtable
define linkonce_odr hidden void @_ZN16MetaspaceClosure4pushI10MethodDataEEvPPT_NS_11WritabilityE(ptr noundef nonnull align 8 dereferenceable(32) %0, ptr noundef %1, i32 noundef %2) #1 comdat align 2 {
  %4 = alloca ptr, align 8
  %5 = alloca ptr, align 8
  %6 = alloca i32, align 4
  store ptr %0, ptr %4, align 8
  store ptr %1, ptr %5, align 8
  store i32 %2, ptr %6, align 4
  %7 = load ptr, ptr %4, align 8
  %8 = load ptr, ptr %5, align 8
  %9 = load i32, ptr %6, align 4
  call void @_ZN16MetaspaceClosure13push_with_refINS_6MSORefI10MethodDataEES2_EEvPPT0_NS_11WritabilityE(ptr noundef nonnull align 8 dereferenceable(32) %7, ptr noundef %8, i32 noundef %9)
  ret void
}

; Function Attrs: mustprogress nounwind uwtable
define linkonce_odr hidden void @_ZN16MetaspaceClosure4pushI11ConstMethodEEvPPT_NS_11WritabilityE(ptr noundef nonnull align 8 dereferenceable(32) %0, ptr noundef %1, i32 noundef %2) #1 comdat align 2 {
  %4 = alloca ptr, align 8
  %5 = alloca ptr, align 8
  %6 = alloca i32, align 4
  store ptr %0, ptr %4, align 8
  store ptr %1, ptr %5, align 8
  store i32 %2, ptr %6, align 4
  %7 = load ptr, ptr %4, align 8
  %8 = load ptr, ptr %5, align 8
  %9 = load i32, ptr %6, align 4
  call void @_ZN16MetaspaceClosure13push_with_refINS_6MSORefI11ConstMethodEES2_EEvPPT0_NS_11WritabilityE(ptr noundef nonnull align 8 dereferenceable(32) %7, ptr noundef %8, i32 noundef %9)
  ret void
}

; Function Attrs: mustprogress nounwind uwtable
define linkonce_odr hidden noundef zeroext i1 @_ZNK13InstanceKlass12is_rewrittenEv(ptr noundef nonnull align 8 dereferenceable(464) %0) #1 comdat align 2 {
  %2 = alloca ptr, align 8
  store ptr %0, ptr %2, align 8
  %3 = load ptr, ptr %2, align 8
  %4 = getelementptr inbounds %class.InstanceKlass, ptr %3, i32 0, i32 23
  %5 = call noundef zeroext i1 @_ZNK18InstanceKlassFlags9rewrittenEv(ptr noundef nonnull align 2 dereferenceable(3) %4)
  ret i1 %5
}

; Function Attrs: mustprogress nounwind uwtable
define linkonce_odr hidden noundef ptr @_ZNK6Method13method_holderEv(ptr noundef nonnull align 8 dereferenceable(88) %0) #1 comdat align 2 {
  %2 = alloca ptr, align 8
  store ptr %0, ptr %2, align 8
  %3 = load ptr, ptr %2, align 8
  %4 = call noundef ptr @_ZNK6Method9constantsEv(ptr noundef nonnull align 8 dereferenceable(88) %3)
  %5 = call noundef ptr @_ZNK12ConstantPool11pool_holderEv(ptr noundef nonnull align 8 dereferenceable(68) %4)
  ret ptr %5
}

; Function Attrs: mustprogress nounwind uwtable
define linkonce_odr hidden noundef zeroext i1 @_ZN7LogImplILN6LogTag4typeE14ELS1_0ELS1_0ELS1_0ELS1_0ELS1_0EE8is_levelEN8LogLevel4typeE(i32 noundef %0) #1 comdat align 2 {
  %2 = alloca i32, align 4
  store i32 %0, ptr %2, align 4
  %3 = call noundef nonnull align 8 dereferenceable(112) ptr @_ZN16LogTagSetMappingILN6LogTag4typeE14ELS1_0ELS1_0ELS1_0ELS1_0ELS1_0EE6tagsetEv()
  %4 = load i32, ptr %2, align 4
  %5 = call noundef zeroext i1 @_ZNK9LogTagSet8is_levelEN8LogLevel4typeE(ptr noundef nonnull align 8 dereferenceable(112) %3, i32 noundef %4)
  ret i1 %5
}

; Function Attrs: mustprogress nounwind uwtable
define hidden void @_ZN6Method21metaspace_pointers_doEP16MetaspaceClosure(ptr noundef nonnull align 8 dereferenceable(88) %0, ptr noundef %1) unnamed_addr #1 align 2 {
  %3 = alloca ptr, align 8
  %4 = alloca ptr, align 8
  store ptr %0, ptr %3, align 8
  store ptr %1, ptr %4, align 8
  %5 = load ptr, ptr %3, align 8
  %6 = call noundef zeroext i1 @_ZN7LogImplILN6LogTag4typeE14ELS1_0ELS1_0ELS1_0ELS1_0ELS1_0EE8is_levelEN8LogLevel4typeE(i32 noundef 1)
  br i1 %6, label %8, label %7

7:                                                ; preds = %2
  br label %9

8:                                                ; preds = %2
  call void (ptr, ...) @_ZN7LogImplILN6LogTag4typeE14ELS1_0ELS1_0ELS1_0ELS1_0ELS1_0EE5writeILN8LogLevel4typeE1EEEvPKcz(ptr noundef @.str.15, ptr noundef %5)
  br label %9

9:                                                ; preds = %8, %7
  %10 = call noundef ptr @_ZNK6Method13method_holderEv(ptr noundef nonnull align 8 dereferenceable(88) %5)
  %11 = call noundef zeroext i1 @_ZNK13InstanceKlass12is_rewrittenEv(ptr noundef nonnull align 8 dereferenceable(464) %10)
  br i1 %11, label %15, label %12

12:                                               ; preds = %9
  %13 = load ptr, ptr %4, align 8
  %14 = getelementptr inbounds %class.Method, ptr %5, i32 0, i32 1
  call void @_ZN16MetaspaceClosure4pushI11ConstMethodEEvPPT_NS_11WritabilityE(ptr noundef nonnull align 8 dereferenceable(32) %13, ptr noundef %14, i32 noundef 0)
  br label %18

15:                                               ; preds = %9
  %16 = load ptr, ptr %4, align 8
  %17 = getelementptr inbounds %class.Method, ptr %5, i32 0, i32 1
  call void @_ZN16MetaspaceClosure4pushI11ConstMethodEEvPPT_NS_11WritabilityE(ptr noundef nonnull align 8 dereferenceable(32) %16, ptr noundef %17, i32 noundef 2)
  br label %18

18:                                               ; preds = %15, %12
  %19 = load ptr, ptr %4, align 8
  %20 = getelementptr inbounds %class.Method, ptr %5, i32 0, i32 2
  call void @_ZN16MetaspaceClosure4pushI10MethodDataEEvPPT_NS_11WritabilityE(ptr noundef nonnull align 8 dereferenceable(32) %19, ptr noundef %20, i32 noundef 2)
  %21 = load ptr, ptr %4, align 8
  %22 = getelementptr inbounds %class.Method, ptr %5, i32 0, i32 3
  call void @_ZN16MetaspaceClosure4pushI14MethodCountersEEvPPT_NS_11WritabilityE(ptr noundef nonnull align 8 dereferenceable(32) %21, ptr noundef %22, i32 noundef 2)
  ret void
}