; Function Attrs: mustprogress nounwind uwtable
define hidden void @_ZN6Method21metaspace_pointers_doEP16MetaspaceClosure(ptr noundef nonnull align 8 dereferenceable(88) %0, ptr noundef %1) unnamed_addr #0 align 2 {
  %3 = load volatile ptr, ptr getelementptr inbounds (i8, ptr @_ZN16LogTagSetMappingILN6LogTag4typeE14ELS1_0ELS1_0ELS1_0ELS1_0ELS1_0EE7_tagsetE, i64 48), align 8
  %.not = icmp eq ptr %3, null
  br i1 %.not, label %5, label %4

4:                                                ; preds = %2
  tail call void (ptr, ...) @_ZN7LogImplILN6LogTag4typeE14ELS1_0ELS1_0ELS1_0ELS1_0ELS1_0EE5writeILN8LogLevel4typeE1EEEvPKcz(ptr noundef nonnull @.str.15, ptr noundef nonnull %0)
  br label %5

5:                                                ; preds = %2, %4
  %6 = getelementptr inbounds i8, ptr %0, i64 8
  %7 = load ptr, ptr %6, align 8
  %8 = getelementptr inbounds i8, ptr %7, i64 8
  %9 = load ptr, ptr %8, align 8
  %10 = getelementptr inbounds i8, ptr %9, i64 24
  %11 = load ptr, ptr %10, align 8
  %12 = getelementptr inbounds i8, ptr %11, i64 308
  %13 = load i16, ptr %12, align 2
  %14 = tail call noundef ptr @_Z12AllocateHeapm8MEMFLAGSN17AllocFailStrategy13AllocFailEnumE(i64 noundef 40, i8 noundef zeroext 24, i32 noundef 0) #23
  %15 = getelementptr inbounds i8, ptr %14, i64 8
  %16 = getelementptr inbounds i8, ptr %14, i64 16
  %17 = getelementptr inbounds i8, ptr %14, i64 32
  %18 = shl i16 %13, 1
  %19 = and i16 %18, 2
  %. = zext nneg i16 %19 to i32
  store i32 %., ptr %15, align 8
  tail call void @llvm.memset.p0.i64(ptr noundef nonnull align 8 dereferenceable(16) %16, i8 0, i64 16, i1 false)
  store ptr getelementptr inbounds inrange(-16, 72) (i8, ptr @_ZTVN16MetaspaceClosure6MSORefI11ConstMethodEE, i64 16), ptr %14, align 8
  store ptr %6, ptr %17, align 8
  tail call void @_ZN16MetaspaceClosure9push_implEPNS_3RefE(ptr noundef nonnull align 8 dereferenceable(32) %1, ptr noundef nonnull %14) #23
  %20 = getelementptr inbounds i8, ptr %0, i64 16
  %21 = tail call noundef ptr @_Z12AllocateHeapm8MEMFLAGSN17AllocFailStrategy13AllocFailEnumE(i64 noundef 40, i8 noundef zeroext 24, i32 noundef 0) #23
  %22 = getelementptr inbounds i8, ptr %21, i64 8
  store i32 2, ptr %22, align 8
  %23 = getelementptr inbounds i8, ptr %21, i64 16
  tail call void @llvm.memset.p0.i64(ptr noundef nonnull align 8 dereferenceable(16) %23, i8 0, i64 16, i1 false)
  store ptr getelementptr inbounds inrange(-16, 72) (i8, ptr @_ZTVN16MetaspaceClosure6MSORefI10MethodDataEE, i64 16), ptr %21, align 8
  %24 = getelementptr inbounds i8, ptr %21, i64 32
  store ptr %20, ptr %24, align 8
  tail call void @_ZN16MetaspaceClosure9push_implEPNS_3RefE(ptr noundef nonnull align 8 dereferenceable(32) %1, ptr noundef nonnull %21) #23
  %25 = getelementptr inbounds i8, ptr %0, i64 24
  %26 = tail call noundef ptr @_Z12AllocateHeapm8MEMFLAGSN17AllocFailStrategy13AllocFailEnumE(i64 noundef 40, i8 noundef zeroext 24, i32 noundef 0) #23
  %27 = getelementptr inbounds i8, ptr %26, i64 8
  store i32 2, ptr %27, align 8
  %28 = getelementptr inbounds i8, ptr %26, i64 16
  tail call void @llvm.memset.p0.i64(ptr noundef nonnull align 8 dereferenceable(16) %28, i8 0, i64 16, i1 false)
  store ptr getelementptr inbounds inrange(-16, 72) (i8, ptr @_ZTVN16MetaspaceClosure6MSORefI14MethodCountersEE, i64 16), ptr %26, align 8
  %29 = getelementptr inbounds i8, ptr %26, i64 32
  store ptr %25, ptr %29, align 8
  tail call void @_ZN16MetaspaceClosure9push_implEPNS_3RefE(ptr noundef nonnull align 8 dereferenceable(32) %1, ptr noundef nonnull %26) #23
  ret void
}